; Function Attrs: mustprogress nounwind uwtable
define hidden void @_ZN17ShenandoahDegenGC16vmop_degeneratedEv(ptr noundef nonnull align 8 dereferenceable(13) %0) local_unnamed_addr #1 align 2 {
  %2 = alloca %class.TraceCollectorStats, align 8
  %3 = alloca %class.ShenandoahTimingsTracker, align 8
  %4 = alloca %class.VM_ShenandoahDegeneratedGC, align 8
  %5 = load ptr, ptr @_ZN8Universe14_collectedHeapE, align 8
  %6 = getelementptr inbounds i8, ptr %5, i64 1688
  %7 = load ptr, ptr %6, align 8
  %8 = tail call noundef ptr @_ZN27ShenandoahMonitoringSupport28full_stw_collection_countersEv(ptr noundef nonnull align 8 dereferenceable(336) %7) #8
  call void @_ZN19TraceCollectorStatsC1EP17CollectorCounters(ptr noundef nonnull align 8 dereferenceable(48) %2, ptr noundef %8) #8
  call void @_ZN24ShenandoahTimingsTrackerC1EN22ShenandoahPhaseTimings5PhaseE(ptr noundef nonnull align 8 dereferenceable(24) %3, i32 noundef 139) #8
  %9 = getelementptr inbounds i8, ptr %4, i64 8
  store ptr null, ptr %9, align 8
  %10 = getelementptr inbounds i8, ptr %4, i64 16
  %11 = call noundef i32 @_ZN4GCId7currentEv() #8
  store i32 %11, ptr %10, align 8
  store ptr getelementptr inbounds inrange(-16, 80) (i8, ptr @_ZTV26VM_ShenandoahDegeneratedGC, i64 16), ptr %4, align 8
  %12 = getelementptr inbounds i8, ptr %4, i64 24
  store ptr %0, ptr %12, align 8
  call void @_ZN8VMThread7executeEP12VM_Operation(ptr noundef nonnull %4) #8
  call void @_ZN24ShenandoahTimingsTrackerD1Ev(ptr noundef nonnull align 8 dereferenceable(24) %3) #8
  call void @_ZN19TraceCollectorStatsD1Ev(ptr noundef nonnull align 8 dereferenceable(48) %2) #8
  ret void
}